target datalayout = "e-m:e-p270:32:32-p271:32:32-p272:64:64-i64:64-i128:128-f80:128-n8:16:32:64-S128"
target triple = "x86_64-pc-linux-gnu"

%struct._object = type { %union.anon, ptr }
%union.anon = type { i64 }
%struct.Py_buffer = type { ptr, ptr, i64, i64, i32, i32, ptr, ptr, ptr, ptr, ptr }
%struct.z_stream_s = type { ptr, i32, i64, ptr, i32, i64, ptr, ptr, ptr, ptr, ptr, i32, i64, i64 }
%struct.PyVarObject = type { %struct._object, i64 }
%struct.anon = type { i32, i32 }
%struct.PyBytesObject = type { %struct.PyVarObject, i64, [1 x i8] }
%struct.compobject = type { %struct._object, %struct.z_stream_s, ptr, ptr, i8, i8, ptr, ptr }

; Function Attrs: alwaysinline nounwind uwtable
define internal i32 @_Py_IsImmortal(ptr noundef %0) #5 {
  %2 = alloca ptr, align 8
  store ptr %0, ptr %2, align 8, !tbaa !3
  %3 = load ptr, ptr %2, align 8, !tbaa !3
  %4 = getelementptr inbounds nuw %struct._object, ptr %3, i32 0, i32 0
  %5 = getelementptr inbounds nuw %struct.anon, ptr %4, i32 0, i32 0
  %6 = load i32, ptr %5, align 8, !tbaa !60
  %7 = icmp slt i32 %6, 0
  %8 = zext i1 %7 to i32
  ret i32 %8
}

; Function Attrs: inlinehint nounwind uwtable
define internal i64 @Py_SIZE(ptr noundef %0) #4 {
  %2 = alloca ptr, align 8
  store ptr %0, ptr %2, align 8, !tbaa !3
  %3 = load ptr, ptr %2, align 8, !tbaa !3
  %4 = getelementptr inbounds nuw %struct.PyVarObject, ptr %3, i32 0, i32 1
  %5 = load i64, ptr %4, align 8, !tbaa !44
  ret i64 %5
}

; Function Attrs: alwaysinline nounwind uwtable
define internal void @Py_DECREF(ptr noundef %0) #5 {
  %2 = alloca ptr, align 8
  store ptr %0, ptr %2, align 8, !tbaa !3
  %3 = load ptr, ptr %2, align 8, !tbaa !3
  %4 = call i32 @_Py_IsImmortal(ptr noundef %3)
  %5 = icmp ne i32 %4, 0
  br i1 %5, label %6, label %7

6:                                                ; preds = %1
  br label %16

7:                                                ; preds = %1
  %8 = load ptr, ptr %2, align 8, !tbaa !3
  %9 = getelementptr inbounds nuw %struct._object, ptr %8, i32 0, i32 0
  %10 = getelementptr inbounds nuw %struct.anon, ptr %9, i32 0, i32 0
  %11 = load i32, ptr %10, align 8, !tbaa !60
  %12 = add i32 %11, -1
  store i32 %12, ptr %10, align 8, !tbaa !60
  %13 = icmp eq i32 %12, 0
  br i1 %13, label %14, label %16

14:                                               ; preds = %7
  %15 = load ptr, ptr %2, align 8, !tbaa !3
  call void @_Py_Dealloc(ptr noundef %15)
  br label %16

16:                                               ; preds = %6, %14, %7
  ret void
}

; Function Attrs: inlinehint nounwind uwtable
define internal ptr @PyBytes_AS_STRING(ptr noundef %0) #4 {
  %2 = alloca ptr, align 8
  store ptr %0, ptr %2, align 8, !tbaa !3
  %3 = load ptr, ptr %2, align 8, !tbaa !3
  %4 = getelementptr inbounds nuw %struct.PyBytesObject, ptr %3, i32 0, i32 2
  %5 = getelementptr inbounds [1 x i8], ptr %4, i64 0, i64 0
  ret ptr %5
}

; Function Attrs: inlinehint nounwind uwtable
define internal i64 @PyBytes_GET_SIZE(ptr noundef %0) #4 {
  %2 = alloca ptr, align 8
  %3 = alloca ptr, align 8
  store ptr %0, ptr %2, align 8, !tbaa !3
  call void @llvm.lifetime.start.p0(i64 8, ptr %3) #7
  %4 = load ptr, ptr %2, align 8, !tbaa !3
  store ptr %4, ptr %3, align 8, !tbaa !8
  %5 = load ptr, ptr %3, align 8, !tbaa !8
  %6 = call i64 @Py_SIZE(ptr noundef %5)
  call void @llvm.lifetime.end.p0(i64 8, ptr %3) #7
  ret i64 %6
}

; Function Attrs: nounwind uwtable
define internal i32 @save_unconsumed_input(ptr noundef %0, ptr noundef %1, i32 noundef %2) #0 {
  %4 = alloca i32, align 4
  %5 = alloca ptr, align 8
  %6 = alloca ptr, align 8
  %7 = alloca i32, align 4
  %8 = alloca i64, align 8
  %9 = alloca i64, align 8
  %10 = alloca i64, align 8
  %11 = alloca ptr, align 8
  %12 = alloca i32, align 4
  %13 = alloca ptr, align 8
  %14 = alloca ptr, align 8
  %15 = alloca i64, align 8
  %16 = alloca ptr, align 8
  %17 = alloca ptr, align 8
  %18 = alloca ptr, align 8
  store ptr %0, ptr %5, align 8, !tbaa !8
  store ptr %1, ptr %6, align 8, !tbaa !8
  store i32 %2, ptr %7, align 4, !tbaa !12
  %19 = load i32, ptr %7, align 4, !tbaa !12
  %20 = icmp eq i32 %19, 1
  br i1 %20, label %21, label %95

21:                                               ; preds = %3
  %22 = load ptr, ptr %5, align 8, !tbaa !8
  %23 = getelementptr inbounds nuw %struct.compobject, ptr %22, i32 0, i32 1
  %24 = getelementptr inbounds nuw %struct.z_stream_s, ptr %23, i32 0, i32 1
  %25 = load i32, ptr %24, align 8, !tbaa !70
  %26 = icmp ugt i32 %25, 0
  br i1 %26, label %27, label %94

27:                                               ; preds = %21
  call void @llvm.lifetime.start.p0(i64 8, ptr %8) #7
  %28 = load ptr, ptr %5, align 8, !tbaa !8
  %29 = getelementptr inbounds nuw %struct.compobject, ptr %28, i32 0, i32 2
  %30 = load ptr, ptr %29, align 8, !tbaa !74
  %31 = call i64 @PyBytes_GET_SIZE(ptr noundef %30)
  store i64 %31, ptr %8, align 8, !tbaa !22
  call void @llvm.lifetime.start.p0(i64 8, ptr %9) #7
  call void @llvm.lifetime.start.p0(i64 8, ptr %10) #7
  call void @llvm.lifetime.start.p0(i64 8, ptr %11) #7
  %32 = load ptr, ptr %6, align 8, !tbaa !8
  %33 = getelementptr inbounds nuw %struct.Py_buffer, ptr %32, i32 0, i32 0
  %34 = load ptr, ptr %33, align 8, !tbaa !29
  %35 = load ptr, ptr %6, align 8, !tbaa !8
  %36 = getelementptr inbounds nuw %struct.Py_buffer, ptr %35, i32 0, i32 2
  %37 = load i64, ptr %36, align 8, !tbaa !28
  %38 = getelementptr i8, ptr %34, i64 %37
  %39 = load ptr, ptr %5, align 8, !tbaa !8
  %40 = getelementptr inbounds nuw %struct.compobject, ptr %39, i32 0, i32 1
  %41 = getelementptr inbounds nuw %struct.z_stream_s, ptr %40, i32 0, i32 0
  %42 = load ptr, ptr %41, align 8, !tbaa !69
  %43 = ptrtoint ptr %38 to i64
  %44 = ptrtoint ptr %42 to i64
  %45 = sub i64 %43, %44
  store i64 %45, ptr %10, align 8, !tbaa !22
  %46 = load i64, ptr %10, align 8, !tbaa !22
  %47 = load i64, ptr %8, align 8, !tbaa !22
  %48 = sub i64 9223372036854775807, %47
  %49 = icmp sgt i64 %46, %48
  br i1 %49, label %50, label %52

50:                                               ; preds = %27
  %51 = call ptr @PyErr_NoMemory()
  store i32 -1, ptr %4, align 4
  store i32 1, ptr %12, align 4
  br label %91

52:                                               ; preds = %27
  %53 = load i64, ptr %8, align 8, !tbaa !22
  %54 = load i64, ptr %10, align 8, !tbaa !22
  %55 = add i64 %53, %54
  store i64 %55, ptr %9, align 8, !tbaa !22
  %56 = load i64, ptr %9, align 8, !tbaa !22
  %57 = call ptr @PyBytes_FromStringAndSize(ptr noundef null, i64 noundef %56)
  store ptr %57, ptr %11, align 8, !tbaa !3
  %58 = load ptr, ptr %11, align 8, !tbaa !3
  %59 = icmp eq ptr %58, null
  br i1 %59, label %60, label %61

60:                                               ; preds = %52
  store i32 -1, ptr %4, align 4
  store i32 1, ptr %12, align 4
  br label %91

61:                                               ; preds = %52
  %62 = load ptr, ptr %11, align 8, !tbaa !3
  %63 = call ptr @PyBytes_AS_STRING(ptr noundef %62)
  %64 = load ptr, ptr %5, align 8, !tbaa !8
  %65 = getelementptr inbounds nuw %struct.compobject, ptr %64, i32 0, i32 2
  %66 = load ptr, ptr %65, align 8, !tbaa !74
  %67 = call ptr @PyBytes_AS_STRING(ptr noundef %66)
  %68 = load i64, ptr %8, align 8, !tbaa !22
  call void @llvm.memcpy.p0.p0.i64(ptr align 1 %63, ptr align 1 %67, i64 %68, i1 false)
  %69 = load ptr, ptr %11, align 8, !tbaa !3
  %70 = call ptr @PyBytes_AS_STRING(ptr noundef %69)
  %71 = load i64, ptr %8, align 8, !tbaa !22
  %72 = getelementptr i8, ptr %70, i64 %71
  %73 = load ptr, ptr %5, align 8, !tbaa !8
  %74 = getelementptr inbounds nuw %struct.compobject, ptr %73, i32 0, i32 1
  %75 = getelementptr inbounds nuw %struct.z_stream_s, ptr %74, i32 0, i32 0
  %76 = load ptr, ptr %75, align 8, !tbaa !69
  %77 = load i64, ptr %10, align 8, !tbaa !22
  call void @llvm.memcpy.p0.p0.i64(ptr align 1 %72, ptr align 1 %76, i64 %77, i1 false)
  br label %78

78:                                               ; preds = %61
  call void @llvm.lifetime.start.p0(i64 8, ptr %13) #7
  %79 = load ptr, ptr %5, align 8, !tbaa !8
  %80 = getelementptr inbounds nuw %struct.compobject, ptr %79, i32 0, i32 2
  store ptr %80, ptr %13, align 8, !tbaa !20
  call void @llvm.lifetime.start.p0(i64 8, ptr %14) #7
  %81 = load ptr, ptr %13, align 8, !tbaa !20
  %82 = load ptr, ptr %81, align 8, !tbaa !3
  store ptr %82, ptr %14, align 8, !tbaa !3
  %83 = load ptr, ptr %11, align 8, !tbaa !3
  %84 = load ptr, ptr %13, align 8, !tbaa !20
  store ptr %83, ptr %84, align 8, !tbaa !3
  %85 = load ptr, ptr %14, align 8, !tbaa !3
  call void @Py_DECREF(ptr noundef %85)
  call void @llvm.lifetime.end.p0(i64 8, ptr %14) #7
  call void @llvm.lifetime.end.p0(i64 8, ptr %13) #7
  br label %86

86:                                               ; preds = %78
  br label %87

87:                                               ; preds = %86
  %88 = load ptr, ptr %5, align 8, !tbaa !8
  %89 = getelementptr inbounds nuw %struct.compobject, ptr %88, i32 0, i32 1
  %90 = getelementptr inbounds nuw %struct.z_stream_s, ptr %89, i32 0, i32 1
  store i32 0, ptr %90, align 8, !tbaa !70
  store i32 0, ptr %12, align 4
  br label %91

91:                                               ; preds = %87, %60, %50
  call void @llvm.lifetime.end.p0(i64 8, ptr %11) #7
  call void @llvm.lifetime.end.p0(i64 8, ptr %10) #7
  call void @llvm.lifetime.end.p0(i64 8, ptr %9) #7
  call void @llvm.lifetime.end.p0(i64 8, ptr %8) #7
  %92 = load i32, ptr %12, align 4
  switch i32 %92, label %148 [
    i32 0, label %93
    i32 1, label %146
  ]

93:                                               ; preds = %91
  br label %94

94:                                               ; preds = %93, %21
  br label %95

95:                                               ; preds = %94, %3
  %96 = load ptr, ptr %5, align 8, !tbaa !8
  %97 = getelementptr inbounds nuw %struct.compobject, ptr %96, i32 0, i32 1
  %98 = getelementptr inbounds nuw %struct.z_stream_s, ptr %97, i32 0, i32 1
  %99 = load i32, ptr %98, align 8, !tbaa !70
  %100 = icmp ugt i32 %99, 0
  br i1 %100, label %107, label %101

101:                                              ; preds = %95
  %102 = load ptr, ptr %5, align 8, !tbaa !8
  %103 = getelementptr inbounds nuw %struct.compobject, ptr %102, i32 0, i32 3
  %104 = load ptr, ptr %103, align 8, !tbaa !75
  %105 = call i64 @PyBytes_GET_SIZE(ptr noundef %104)
  %106 = icmp ne i64 %105, 0
  br i1 %106, label %107, label %145

107:                                              ; preds = %101, %95
  call void @llvm.lifetime.start.p0(i64 8, ptr %15) #7
  %108 = load ptr, ptr %6, align 8, !tbaa !8
  %109 = getelementptr inbounds nuw %struct.Py_buffer, ptr %108, i32 0, i32 0
  %110 = load ptr, ptr %109, align 8, !tbaa !29
  %111 = load ptr, ptr %6, align 8, !tbaa !8
  %112 = getelementptr inbounds nuw %struct.Py_buffer, ptr %111, i32 0, i32 2
  %113 = load i64, ptr %112, align 8, !tbaa !28
  %114 = getelementptr i8, ptr %110, i64 %113
  %115 = load ptr, ptr %5, align 8, !tbaa !8
  %116 = getelementptr inbounds nuw %struct.compobject, ptr %115, i32 0, i32 1
  %117 = getelementptr inbounds nuw %struct.z_stream_s, ptr %116, i32 0, i32 0
  %118 = load ptr, ptr %117, align 8, !tbaa !69
  %119 = ptrtoint ptr %114 to i64
  %120 = ptrtoint ptr %118 to i64
  %121 = sub i64 %119, %120
  store i64 %121, ptr %15, align 8, !tbaa !22
  call void @llvm.lifetime.start.p0(i64 8, ptr %16) #7
  %122 = load ptr, ptr %5, align 8, !tbaa !8
  %123 = getelementptr inbounds nuw %struct.compobject, ptr %122, i32 0, i32 1
  %124 = getelementptr inbounds nuw %struct.z_stream_s, ptr %123, i32 0, i32 0
  %125 = load ptr, ptr %124, align 8, !tbaa !69
  %126 = load i64, ptr %15, align 8, !tbaa !22
  %127 = call ptr @PyBytes_FromStringAndSize(ptr noundef %125, i64 noundef %126)
  store ptr %127, ptr %16, align 8, !tbaa !3
  %128 = load ptr, ptr %16, align 8, !tbaa !3
  %129 = icmp eq ptr %128, null
  br i1 %129, label %130, label %131

130:                                              ; preds = %107
  store i32 -1, ptr %4, align 4
  store i32 1, ptr %12, align 4
  br label %142

131:                                              ; preds = %107
  br label %132

132:                                              ; preds = %131
  call void @llvm.lifetime.start.p0(i64 8, ptr %17) #7
  %133 = load ptr, ptr %5, align 8, !tbaa !8
  %134 = getelementptr inbounds nuw %struct.compobject, ptr %133, i32 0, i32 3
  store ptr %134, ptr %17, align 8, !tbaa !20
  call void @llvm.lifetime.start.p0(i64 8, ptr %18) #7
  %135 = load ptr, ptr %17, align 8, !tbaa !20
  %136 = load ptr, ptr %135, align 8, !tbaa !3
  store ptr %136, ptr %18, align 8, !tbaa !3
  %137 = load ptr, ptr %16, align 8, !tbaa !3
  %138 = load ptr, ptr %17, align 8, !tbaa !20
  store ptr %137, ptr %138, align 8, !tbaa !3
  %139 = load ptr, ptr %18, align 8, !tbaa !3
  call void @Py_DECREF(ptr noundef %139)
  call void @llvm.lifetime.end.p0(i64 8, ptr %18) #7
  call void @llvm.lifetime.end.p0(i64 8, ptr %17) #7
  br label %140

140:                                              ; preds = %132
  br label %141

141:                                              ; preds = %140
  store i32 0, ptr %12, align 4
  br label %142

142:                                              ; preds = %141, %130
  call void @llvm.lifetime.end.p0(i64 8, ptr %16) #7
  call void @llvm.lifetime.end.p0(i64 8, ptr %15) #7
  %143 = load i32, ptr %12, align 4
  switch i32 %143, label %148 [
    i32 0, label %144
    i32 1, label %146
  ]

144:                                              ; preds = %142
  br label %145

145:                                              ; preds = %144, %101
  store i32 0, ptr %4, align 4
  br label %146

146:                                              ; preds = %145, %142, %91
  %147 = load i32, ptr %4, align 4
  ret i32 %147

148:                                              ; preds = %142, %91
  unreachable
}