; Function Attrs: nounwind uwtable
define internal fastcc range(i32 -1, 1) i32 @save_unconsumed_input(ptr noundef captures(none) %0, ptr noundef nonnull readonly captures(none) %1, i32 noundef %2) unnamed_addr #0 {
  %4 = icmp eq i32 %2, 1
  br i1 %4, label %5, label %43

5:                                                ; preds = %3
  %6 = getelementptr inbounds nuw i8, ptr %0, i64 16
  %7 = getelementptr inbounds nuw i8, ptr %0, i64 24
  %8 = load i32, ptr %7, align 8, !tbaa !54
  %.not = icmp eq i32 %8, 0
  br i1 %.not, label %.thread, label %9

9:                                                ; preds = %5
  %10 = getelementptr inbounds nuw i8, ptr %0, i64 128
  %11 = load ptr, ptr %10, align 8, !tbaa !64
  %12 = getelementptr i8, ptr %11, i64 16
  %.val = load i64, ptr %12, align 8, !tbaa !25
  %13 = load ptr, ptr %1, align 8, !tbaa !28
  %14 = getelementptr inbounds nuw i8, ptr %1, i64 16
  %15 = load i64, ptr %14, align 8, !tbaa !16
  %16 = getelementptr i8, ptr %13, i64 %15
  %17 = load ptr, ptr %6, align 8, !tbaa !53
  %18 = ptrtoint ptr %16 to i64
  %19 = ptrtoint ptr %17 to i64
  %20 = sub i64 %18, %19
  %21 = sub i64 9223372036854775807, %.val
  %22 = icmp sgt i64 %20, %21
  br i1 %22, label %23, label %25

23:                                               ; preds = %9
  %24 = tail call ptr @PyErr_NoMemory() #7
  br label %Py_DECREF.exit

25:                                               ; preds = %9
  %26 = add i64 %20, %.val
  %27 = tail call ptr @PyBytes_FromStringAndSize(ptr noundef null, i64 noundef %26) #7
  %28 = icmp eq ptr %27, null
  br i1 %28, label %Py_DECREF.exit, label %29

29:                                               ; preds = %25
  %30 = getelementptr inbounds nuw i8, ptr %27, i64 32
  %31 = load ptr, ptr %10, align 8, !tbaa !64
  %32 = getelementptr inbounds nuw i8, ptr %31, i64 32
  tail call void @llvm.memcpy.p0.p0.i64(ptr nonnull align 1 %30, ptr nonnull align 1 %32, i64 %.val, i1 false)
  %33 = getelementptr i8, ptr %30, i64 %.val
  %34 = load ptr, ptr %6, align 8, !tbaa !53
  tail call void @llvm.memcpy.p0.p0.i64(ptr align 1 %33, ptr align 1 %34, i64 %20, i1 false)
  %35 = load ptr, ptr %10, align 8, !tbaa !15
  store ptr %27, ptr %10, align 8, !tbaa !15
  %36 = load i32, ptr %35, align 8, !tbaa !14
  %.not.i48 = icmp sgt i32 %36, -1
  br i1 %.not.i48, label %37, label %41

37:                                               ; preds = %29
  %38 = add nsw i32 %36, -1
  store i32 %38, ptr %35, align 8, !tbaa !14
  %39 = icmp eq i32 %38, 0
  br i1 %39, label %40, label %41

40:                                               ; preds = %37
  tail call void @_Py_Dealloc(ptr noundef nonnull %35) #7
  br label %41

41:                                               ; preds = %40, %37, %29
  store i32 0, ptr %7, align 8, !tbaa !54
  br label %.thread

.thread:                                          ; preds = %41, %5
  %42 = getelementptr inbounds nuw i8, ptr %0, i64 16
  br label %46

43:                                               ; preds = %3
  %.phi.trans.insert = getelementptr inbounds nuw i8, ptr %0, i64 24
  %.pre = load i32, ptr %.phi.trans.insert, align 8, !tbaa !54
  %44 = icmp eq i32 %.pre, 0
  %45 = getelementptr inbounds nuw i8, ptr %0, i64 16
  br i1 %44, label %46, label %51

46:                                               ; preds = %.thread, %43
  %47 = phi ptr [ %42, %.thread ], [ %45, %43 ]
  %48 = getelementptr inbounds nuw i8, ptr %0, i64 136
  %49 = load ptr, ptr %48, align 8, !tbaa !65
  %50 = getelementptr i8, ptr %49, i64 16
  %.val51 = load i64, ptr %50, align 8, !tbaa !25
  %.not45 = icmp eq i64 %.val51, 0
  br i1 %.not45, label %Py_DECREF.exit, label %51

51:                                               ; preds = %46, %43
  %52 = phi ptr [ %47, %46 ], [ %45, %43 ]
  %53 = load ptr, ptr %1, align 8, !tbaa !28
  %54 = getelementptr inbounds nuw i8, ptr %1, i64 16
  %55 = load i64, ptr %54, align 8, !tbaa !16
  %56 = getelementptr i8, ptr %53, i64 %55
  %57 = load ptr, ptr %52, align 8, !tbaa !53
  %58 = ptrtoint ptr %56 to i64
  %59 = ptrtoint ptr %57 to i64
  %60 = sub i64 %58, %59
  %61 = tail call ptr @PyBytes_FromStringAndSize(ptr noundef %57, i64 noundef %60) #7
  %62 = icmp eq ptr %61, null
  br i1 %62, label %Py_DECREF.exit, label %63

63:                                               ; preds = %51
  %64 = getelementptr inbounds nuw i8, ptr %0, i64 136
  %65 = load ptr, ptr %64, align 8, !tbaa !15
  store ptr %61, ptr %64, align 8, !tbaa !15
  %66 = load i32, ptr %65, align 8, !tbaa !14
  %.not.i = icmp sgt i32 %66, -1
  br i1 %.not.i, label %67, label %Py_DECREF.exit

67:                                               ; preds = %63
  %68 = add nsw i32 %66, -1
  store i32 %68, ptr %65, align 8, !tbaa !14
  %69 = icmp eq i32 %68, 0
  br i1 %69, label %70, label %Py_DECREF.exit

70:                                               ; preds = %67
  tail call void @_Py_Dealloc(ptr noundef nonnull %65) #7
  br label %Py_DECREF.exit

Py_DECREF.exit:                                   ; preds = %63, %67, %70, %25, %23, %46, %51
  %.2 = phi i32 [ -1, %51 ], [ 0, %46 ], [ -1, %23 ], [ -1, %25 ], [ 0, %70 ], [ 0, %67 ], [ 0, %63 ]
  ret i32 %.2
}